target datalayout = "e-m:e-p270:32:32-p271:32:32-p272:64:64-i64:64-i128:128-f80:128-n8:16:32:64-S128"
target triple = "x86_64-pc-linux-gnu"

%struct.yyguts_t = type { ptr, ptr, ptr, i64, i64, ptr, i8, i32, i32, ptr, i32, i32, i32, i32, i32, ptr, i32, ptr, i32, i32, ptr, i32, i32, ptr, ptr }

@.str.40 = private unnamed_addr constant [32 x i8] c"start-condition stack underflow\00", align 1

; Function Attrs: mustprogress uwtable
define internal void @_ZL12yy_pop_statePv(ptr noundef %0) #5 {
  %2 = alloca ptr, align 8
  %3 = alloca ptr, align 8
  store ptr %0, ptr %2, align 8
  %4 = load ptr, ptr %2, align 8
  store ptr %4, ptr %3, align 8
  %5 = load ptr, ptr %3, align 8
  %6 = getelementptr inbounds %struct.yyguts_t, ptr %5, i32 0, i32 13
  %7 = load i32, ptr %6, align 4
  %8 = add nsw i32 %7, -1
  store i32 %8, ptr %6, align 4
  %9 = icmp slt i32 %8, 0
  br i1 %9, label %10, label %12

10:                                               ; preds = %1
  %11 = load ptr, ptr %2, align 8
  call void @_ZL14yy_fatal_errorPKcPv(ptr noundef @.str.40, ptr noundef %11) #24
  unreachable

12:                                               ; preds = %1
  %13 = load ptr, ptr %3, align 8
  %14 = getelementptr inbounds %struct.yyguts_t, ptr %13, i32 0, i32 15
  %15 = load ptr, ptr %14, align 8
  %16 = load ptr, ptr %3, align 8
  %17 = getelementptr inbounds %struct.yyguts_t, ptr %16, i32 0, i32 13
  %18 = load i32, ptr %17, align 4
  %19 = sext i32 %18 to i64
  %20 = getelementptr inbounds i32, ptr %15, i64 %19
  %21 = load i32, ptr %20, align 4
  %22 = mul nsw i32 2, %21
  %23 = add nsw i32 1, %22
  %24 = load ptr, ptr %3, align 8
  %25 = getelementptr inbounds %struct.yyguts_t, ptr %24, i32 0, i32 11
  store i32 %23, ptr %25, align 4
  ret void
}