; Function Attrs: mustprogress nounwind uwtable
define internal fastcc void @_ZL12yy_pop_statePv(ptr nocapture noundef %0) unnamed_addr #5 {
  %2 = getelementptr inbounds i8, ptr %0, i64 84
  %3 = load i32, ptr %2, align 4
  %4 = add nsw i32 %3, -1
  store i32 %4, ptr %2, align 4
  %5 = icmp slt i32 %3, 1
  br i1 %5, label %6, label %7

6:                                                ; preds = %1
  tail call fastcc void @_ZL14yy_fatal_errorPKcPv(ptr noundef nonnull @.str.40) #45
  unreachable

7:                                                ; preds = %1
  %8 = getelementptr inbounds i8, ptr %0, i64 96
  %9 = load ptr, ptr %8, align 8
  %10 = zext nneg i32 %4 to i64
  %11 = getelementptr inbounds i32, ptr %9, i64 %10
  %12 = load i32, ptr %11, align 4
  %13 = shl nsw i32 %12, 1
  %14 = or disjoint i32 %13, 1
  %15 = getelementptr inbounds i8, ptr %0, i64 76
  store i32 %14, ptr %15, align 4
  ret void
}